
Smart_Home.elf:     file format elf32-avr

Sections:
Idx Name          Size      VMA       LMA       File off  Algn
  0 .text         00000368  00000000  00000000  00000054  2**1
                  CONTENTS, ALLOC, LOAD, READONLY, CODE
  1 .data         00000000  00800060  00800060  000003bc  2**0
                  CONTENTS, ALLOC, LOAD, DATA
  2 .comment      00000030  00000000  00000000  000003bc  2**0
                  CONTENTS, READONLY
  3 .note.gnu.avr.deviceinfo 0000003c  00000000  00000000  000003ec  2**2
                  CONTENTS, READONLY
  4 .debug_info   000004e6  00000000  00000000  00000428  2**0
                  CONTENTS, READONLY, DEBUGGING
  5 .debug_abbrev 000004a3  00000000  00000000  0000090e  2**0
                  CONTENTS, READONLY, DEBUGGING
  6 .debug_line   00000116  00000000  00000000  00000db1  2**0
                  CONTENTS, READONLY, DEBUGGING
  7 .debug_str    00000196  00000000  00000000  00000ec7  2**0
                  CONTENTS, READONLY, DEBUGGING

Disassembly of section .text:

00000000 <__vectors>:
   0:	0c 94 2a 00 	jmp	0x54	; 0x54 <__ctors_end>
   4:	0c 94 34 00 	jmp	0x68	; 0x68 <__bad_interrupt>
   8:	0c 94 34 00 	jmp	0x68	; 0x68 <__bad_interrupt>
   c:	0c 94 34 00 	jmp	0x68	; 0x68 <__bad_interrupt>
  10:	0c 94 34 00 	jmp	0x68	; 0x68 <__bad_interrupt>
  14:	0c 94 34 00 	jmp	0x68	; 0x68 <__bad_interrupt>
  18:	0c 94 34 00 	jmp	0x68	; 0x68 <__bad_interrupt>
  1c:	0c 94 34 00 	jmp	0x68	; 0x68 <__bad_interrupt>
  20:	0c 94 34 00 	jmp	0x68	; 0x68 <__bad_interrupt>
  24:	0c 94 34 00 	jmp	0x68	; 0x68 <__bad_interrupt>
  28:	0c 94 34 00 	jmp	0x68	; 0x68 <__bad_interrupt>
  2c:	0c 94 34 00 	jmp	0x68	; 0x68 <__bad_interrupt>
  30:	0c 94 34 00 	jmp	0x68	; 0x68 <__bad_interrupt>
  34:	0c 94 34 00 	jmp	0x68	; 0x68 <__bad_interrupt>
  38:	0c 94 34 00 	jmp	0x68	; 0x68 <__bad_interrupt>
  3c:	0c 94 34 00 	jmp	0x68	; 0x68 <__bad_interrupt>
  40:	0c 94 34 00 	jmp	0x68	; 0x68 <__bad_interrupt>
  44:	0c 94 34 00 	jmp	0x68	; 0x68 <__bad_interrupt>
  48:	0c 94 34 00 	jmp	0x68	; 0x68 <__bad_interrupt>
  4c:	0c 94 34 00 	jmp	0x68	; 0x68 <__bad_interrupt>
  50:	0c 94 34 00 	jmp	0x68	; 0x68 <__bad_interrupt>

00000054 <__ctors_end>:
  54:	11 24       	eor	r1, r1
  56:	1f be       	out	0x3f, r1	; 63
  58:	cf e5       	ldi	r28, 0x5F	; 95
  5a:	d8 e0       	ldi	r29, 0x08	; 8
  5c:	de bf       	out	0x3e, r29	; 62
  5e:	cd bf       	out	0x3d, r28	; 61
  60:	0e 94 cc 00 	call	0x198	; 0x198 <main>
  64:	0c 94 b2 01 	jmp	0x364	; 0x364 <_exit>

00000068 <__bad_interrupt>:
  68:	0c 94 00 00 	jmp	0	; 0x0 <__vectors>

0000006c <asmh_initApp>:
  6c:	cf 93       	push	r28
  6e:	c8 2f       	mov	r28, r24
  70:	81 11       	cpse	r24, r1
  72:	11 c0       	rjmp	.+34     	; 0x96 <asmh_initApp+0x2a>
  74:	42 e0       	ldi	r20, 0x02	; 2
  76:	60 ea       	ldi	r22, 0xA0	; 160
  78:	81 e0       	ldi	r24, 0x01	; 1
  7a:	0e 94 de 00 	call	0x1bc	; 0x1bc <mdio_setPinStatus>
  7e:	42 e0       	ldi	r20, 0x02	; 2
  80:	61 e0       	ldi	r22, 0x01	; 1
  82:	80 e0       	ldi	r24, 0x00	; 0
  84:	0e 94 de 00 	call	0x1bc	; 0x1bc <mdio_setPinStatus>
  88:	40 e0       	ldi	r20, 0x00	; 0
  8a:	60 e4       	ldi	r22, 0x40	; 64
  8c:	81 e0       	ldi	r24, 0x01	; 1
  8e:	0e 94 de 00 	call	0x1bc	; 0x1bc <mdio_setPinStatus>
  92:	80 e1       	ldi	r24, 0x10	; 16
  94:	10 c0       	rjmp	.+32     	; 0xb6 <asmh_initApp+0x4a>
  96:	40 e0       	ldi	r20, 0x00	; 0
  98:	60 ea       	ldi	r22, 0xA0	; 160
  9a:	81 e0       	ldi	r24, 0x01	; 1
  9c:	0e 94 de 00 	call	0x1bc	; 0x1bc <mdio_setPinStatus>
  a0:	40 e0       	ldi	r20, 0x00	; 0
  a2:	61 e0       	ldi	r22, 0x01	; 1
  a4:	80 e0       	ldi	r24, 0x00	; 0
  a6:	0e 94 de 00 	call	0x1bc	; 0x1bc <mdio_setPinStatus>
  aa:	42 e0       	ldi	r20, 0x02	; 2
  ac:	60 e4       	ldi	r22, 0x40	; 64
  ae:	81 e0       	ldi	r24, 0x01	; 1
  b0:	0e 94 de 00 	call	0x1bc	; 0x1bc <mdio_setPinStatus>
  b4:	80 e0       	ldi	r24, 0x00	; 0
  b6:	21 e0       	ldi	r18, 0x01	; 1
  b8:	40 e0       	ldi	r20, 0x00	; 0
  ba:	60 e0       	ldi	r22, 0x00	; 0
  bc:	0e 94 97 01 	call	0x32e	; 0x32e <mspi_init>
  c0:	c1 11       	cpse	r28, r1
  c2:	03 c0       	rjmp	.+6      	; 0xca <asmh_initApp+0x5e>
  c4:	cf 91       	pop	r28
  c6:	0c 94 8d 00 	jmp	0x11a	; 0x11a <hbth_init>
  ca:	81 e0       	ldi	r24, 0x01	; 1
  cc:	0e 94 9a 00 	call	0x134	; 0x134 <hled_init>
  d0:	82 e0       	ldi	r24, 0x02	; 2
  d2:	cf 91       	pop	r28
  d4:	0c 94 9a 00 	jmp	0x134	; 0x134 <hled_init>

000000d8 <asmh_slaveSPIrecvCmd>:
  d8:	bc 01       	movw	r22, r24
  da:	80 e0       	ldi	r24, 0x00	; 0
  dc:	0c 94 a4 01 	jmp	0x348	; 0x348 <mspi_slaveSendRecvByte>

000000e0 <asmh_slaveProcessRecvData>:
  e0:	83 36       	cpi	r24, 0x63	; 99
  e2:	81 f0       	breq	.+32     	; 0x104 <asmh_slaveProcessRecvData+0x24>
  e4:	28 f4       	brcc	.+10     	; 0xf0 <asmh_slaveProcessRecvData+0x10>
  e6:	81 36       	cpi	r24, 0x61	; 97
  e8:	49 f0       	breq	.+18     	; 0xfc <asmh_slaveProcessRecvData+0x1c>
  ea:	82 36       	cpi	r24, 0x62	; 98
  ec:	49 f0       	breq	.+18     	; 0x100 <asmh_slaveProcessRecvData+0x20>
  ee:	08 95       	ret
  f0:	85 36       	cpi	r24, 0x65	; 101
  f2:	71 f0       	breq	.+28     	; 0x110 <asmh_slaveProcessRecvData+0x30>
  f4:	50 f0       	brcs	.+20     	; 0x10a <asmh_slaveProcessRecvData+0x2a>
  f6:	86 36       	cpi	r24, 0x66	; 102
  f8:	69 f0       	breq	.+26     	; 0x114 <asmh_slaveProcessRecvData+0x34>
  fa:	08 95       	ret
  fc:	81 e0       	ldi	r24, 0x01	; 1
  fe:	03 c0       	rjmp	.+6      	; 0x106 <asmh_slaveProcessRecvData+0x26>
 100:	81 e0       	ldi	r24, 0x01	; 1
 102:	04 c0       	rjmp	.+8      	; 0x10c <asmh_slaveProcessRecvData+0x2c>
 104:	82 e0       	ldi	r24, 0x02	; 2
 106:	0c 94 a7 00 	jmp	0x14e	; 0x14e <hled_turnOnLED>
 10a:	82 e0       	ldi	r24, 0x02	; 2
 10c:	0c 94 b4 00 	jmp	0x168	; 0x168 <hled_turnOffLED>
 110:	81 e0       	ldi	r24, 0x01	; 1
 112:	01 c0       	rjmp	.+2      	; 0x116 <asmh_slaveProcessRecvData+0x36>
 114:	82 e0       	ldi	r24, 0x02	; 2
 116:	0c 94 c1 00 	jmp	0x182	; 0x182 <hled_toggleLED>

0000011a <hbth_init>:
 11a:	40 e0       	ldi	r20, 0x00	; 0
 11c:	61 e0       	ldi	r22, 0x01	; 1
 11e:	83 e0       	ldi	r24, 0x03	; 3
 120:	0e 94 de 00 	call	0x1bc	; 0x1bc <mdio_setPinStatus>
 124:	42 e0       	ldi	r20, 0x02	; 2
 126:	62 e0       	ldi	r22, 0x02	; 2
 128:	83 e0       	ldi	r24, 0x03	; 3
 12a:	0e 94 de 00 	call	0x1bc	; 0x1bc <mdio_setPinStatus>
 12e:	87 e6       	ldi	r24, 0x67	; 103
 130:	0c 94 ab 01 	jmp	0x356	; 0x356 <muart_init>

00000134 <hled_init>:
 134:	81 30       	cpi	r24, 0x01	; 1
 136:	19 f0       	breq	.+6      	; 0x13e <hled_init+0xa>
 138:	82 30       	cpi	r24, 0x02	; 2
 13a:	21 f0       	breq	.+8      	; 0x144 <hled_init+0x10>
 13c:	08 95       	ret
 13e:	42 e0       	ldi	r20, 0x02	; 2
 140:	61 e0       	ldi	r22, 0x01	; 1
 142:	02 c0       	rjmp	.+4      	; 0x148 <hled_init+0x14>
 144:	42 e0       	ldi	r20, 0x02	; 2
 146:	62 e0       	ldi	r22, 0x02	; 2
 148:	83 e0       	ldi	r24, 0x03	; 3
 14a:	0c 94 de 00 	jmp	0x1bc	; 0x1bc <mdio_setPinStatus>

0000014e <hled_turnOnLED>:
 14e:	81 30       	cpi	r24, 0x01	; 1
 150:	19 f0       	breq	.+6      	; 0x158 <hled_turnOnLED+0xa>
 152:	82 30       	cpi	r24, 0x02	; 2
 154:	21 f0       	breq	.+8      	; 0x15e <hled_turnOnLED+0x10>
 156:	08 95       	ret
 158:	41 e0       	ldi	r20, 0x01	; 1
 15a:	61 e0       	ldi	r22, 0x01	; 1
 15c:	02 c0       	rjmp	.+4      	; 0x162 <hled_turnOnLED+0x14>
 15e:	41 e0       	ldi	r20, 0x01	; 1
 160:	62 e0       	ldi	r22, 0x02	; 2
 162:	83 e0       	ldi	r24, 0x03	; 3
 164:	0c 94 43 01 	jmp	0x286	; 0x286 <mdio_setPinValue>

00000168 <hled_turnOffLED>:
 168:	81 30       	cpi	r24, 0x01	; 1
 16a:	19 f0       	breq	.+6      	; 0x172 <hled_turnOffLED+0xa>
 16c:	82 30       	cpi	r24, 0x02	; 2
 16e:	21 f0       	breq	.+8      	; 0x178 <hled_turnOffLED+0x10>
 170:	08 95       	ret
 172:	40 e0       	ldi	r20, 0x00	; 0
 174:	61 e0       	ldi	r22, 0x01	; 1
 176:	02 c0       	rjmp	.+4      	; 0x17c <hled_turnOffLED+0x14>
 178:	40 e0       	ldi	r20, 0x00	; 0
 17a:	62 e0       	ldi	r22, 0x02	; 2
 17c:	83 e0       	ldi	r24, 0x03	; 3
 17e:	0c 94 43 01 	jmp	0x286	; 0x286 <mdio_setPinValue>

00000182 <hled_toggleLED>:
 182:	81 30       	cpi	r24, 0x01	; 1
 184:	19 f0       	breq	.+6      	; 0x18c <hled_toggleLED+0xa>
 186:	82 30       	cpi	r24, 0x02	; 2
 188:	19 f0       	breq	.+6      	; 0x190 <hled_toggleLED+0xe>
 18a:	08 95       	ret
 18c:	61 e0       	ldi	r22, 0x01	; 1
 18e:	01 c0       	rjmp	.+2      	; 0x192 <hled_toggleLED+0x10>
 190:	62 e0       	ldi	r22, 0x02	; 2
 192:	83 e0       	ldi	r24, 0x03	; 3
 194:	0c 94 7f 01 	jmp	0x2fe	; 0x2fe <mdio_togglePinValue>

00000198 <main>:
 198:	cf 93       	push	r28
 19a:	df 93       	push	r29
 19c:	1f 92       	push	r1
 19e:	cd b7       	in	r28, 0x3d	; 61
 1a0:	de b7       	in	r29, 0x3e	; 62
 1a2:	19 82       	std	Y+1, r1	; 0x01
 1a4:	81 e0       	ldi	r24, 0x01	; 1
 1a6:	0e 94 36 00 	call	0x6c	; 0x6c <asmh_initApp>
 1aa:	ce 01       	movw	r24, r28
 1ac:	01 96       	adiw	r24, 0x01	; 1
 1ae:	0e 94 6c 00 	call	0xd8	; 0xd8 <asmh_slaveSPIrecvCmd>
 1b2:	89 81       	ldd	r24, Y+1	; 0x01
 1b4:	0e 94 70 00 	call	0xe0	; 0xe0 <asmh_slaveProcessRecvData>
 1b8:	19 82       	std	Y+1, r1	; 0x01
 1ba:	f7 cf       	rjmp	.-18     	; 0x1aa <main+0x12>

000001bc <mdio_setPinStatus>:
 1bc:	81 30       	cpi	r24, 0x01	; 1
 1be:	f1 f0       	breq	.+60     	; 0x1fc <mdio_setPinStatus+0x40>
 1c0:	30 f0       	brcs	.+12     	; 0x1ce <mdio_setPinStatus+0x12>
 1c2:	82 30       	cpi	r24, 0x02	; 2
 1c4:	91 f1       	breq	.+100    	; 0x22a <mdio_setPinStatus+0x6e>
 1c6:	83 30       	cpi	r24, 0x03	; 3
 1c8:	09 f4       	brne	.+2      	; 0x1cc <mdio_setPinStatus+0x10>
 1ca:	46 c0       	rjmp	.+140    	; 0x258 <mdio_setPinStatus+0x9c>
 1cc:	08 95       	ret
 1ce:	41 30       	cpi	r20, 0x01	; 1
 1d0:	41 f0       	breq	.+16     	; 0x1e2 <mdio_setPinStatus+0x26>
 1d2:	18 f0       	brcs	.+6      	; 0x1da <mdio_setPinStatus+0x1e>
 1d4:	42 30       	cpi	r20, 0x02	; 2
 1d6:	71 f0       	breq	.+28     	; 0x1f4 <mdio_setPinStatus+0x38>
 1d8:	08 95       	ret
 1da:	8a b3       	in	r24, 0x1a	; 26
 1dc:	60 95       	com	r22
 1de:	68 23       	and	r22, r24
 1e0:	0b c0       	rjmp	.+22     	; 0x1f8 <mdio_setPinStatus+0x3c>
 1e2:	8a b3       	in	r24, 0x1a	; 26
 1e4:	96 2f       	mov	r25, r22
 1e6:	90 95       	com	r25
 1e8:	89 23       	and	r24, r25
 1ea:	8a bb       	out	0x1a, r24	; 26
 1ec:	8b b3       	in	r24, 0x1b	; 27
 1ee:	68 2b       	or	r22, r24
 1f0:	6b bb       	out	0x1b, r22	; 27
 1f2:	08 95       	ret
 1f4:	8a b3       	in	r24, 0x1a	; 26
 1f6:	68 2b       	or	r22, r24
 1f8:	6a bb       	out	0x1a, r22	; 26
 1fa:	08 95       	ret
 1fc:	41 30       	cpi	r20, 0x01	; 1
 1fe:	41 f0       	breq	.+16     	; 0x210 <mdio_setPinStatus+0x54>
 200:	18 f0       	brcs	.+6      	; 0x208 <mdio_setPinStatus+0x4c>
 202:	42 30       	cpi	r20, 0x02	; 2
 204:	71 f0       	breq	.+28     	; 0x222 <mdio_setPinStatus+0x66>
 206:	08 95       	ret
 208:	87 b3       	in	r24, 0x17	; 23
 20a:	60 95       	com	r22
 20c:	68 23       	and	r22, r24
 20e:	0b c0       	rjmp	.+22     	; 0x226 <mdio_setPinStatus+0x6a>
 210:	87 b3       	in	r24, 0x17	; 23
 212:	96 2f       	mov	r25, r22
 214:	90 95       	com	r25
 216:	89 23       	and	r24, r25
 218:	87 bb       	out	0x17, r24	; 23
 21a:	88 b3       	in	r24, 0x18	; 24
 21c:	68 2b       	or	r22, r24
 21e:	68 bb       	out	0x18, r22	; 24
 220:	08 95       	ret
 222:	87 b3       	in	r24, 0x17	; 23
 224:	68 2b       	or	r22, r24
 226:	67 bb       	out	0x17, r22	; 23
 228:	08 95       	ret
 22a:	41 30       	cpi	r20, 0x01	; 1
 22c:	41 f0       	breq	.+16     	; 0x23e <mdio_setPinStatus+0x82>
 22e:	18 f0       	brcs	.+6      	; 0x236 <mdio_setPinStatus+0x7a>
 230:	42 30       	cpi	r20, 0x02	; 2
 232:	71 f0       	breq	.+28     	; 0x250 <mdio_setPinStatus+0x94>
 234:	08 95       	ret
 236:	84 b3       	in	r24, 0x14	; 20
 238:	60 95       	com	r22
 23a:	68 23       	and	r22, r24
 23c:	0b c0       	rjmp	.+22     	; 0x254 <mdio_setPinStatus+0x98>
 23e:	84 b3       	in	r24, 0x14	; 20
 240:	96 2f       	mov	r25, r22
 242:	90 95       	com	r25
 244:	89 23       	and	r24, r25
 246:	84 bb       	out	0x14, r24	; 20
 248:	85 b3       	in	r24, 0x15	; 21
 24a:	68 2b       	or	r22, r24
 24c:	65 bb       	out	0x15, r22	; 21
 24e:	08 95       	ret
 250:	84 b3       	in	r24, 0x14	; 20
 252:	68 2b       	or	r22, r24
 254:	64 bb       	out	0x14, r22	; 20
 256:	08 95       	ret
 258:	41 30       	cpi	r20, 0x01	; 1
 25a:	41 f0       	breq	.+16     	; 0x26c <mdio_setPinStatus+0xb0>
 25c:	18 f0       	brcs	.+6      	; 0x264 <mdio_setPinStatus+0xa8>
 25e:	42 30       	cpi	r20, 0x02	; 2
 260:	71 f0       	breq	.+28     	; 0x27e <mdio_setPinStatus+0xc2>
 262:	08 95       	ret
 264:	81 b3       	in	r24, 0x11	; 17
 266:	60 95       	com	r22
 268:	68 23       	and	r22, r24
 26a:	0b c0       	rjmp	.+22     	; 0x282 <mdio_setPinStatus+0xc6>
 26c:	81 b3       	in	r24, 0x11	; 17
 26e:	96 2f       	mov	r25, r22
 270:	90 95       	com	r25
 272:	89 23       	and	r24, r25
 274:	81 bb       	out	0x11, r24	; 17
 276:	82 b3       	in	r24, 0x12	; 18
 278:	68 2b       	or	r22, r24
 27a:	62 bb       	out	0x12, r22	; 18
 27c:	08 95       	ret
 27e:	81 b3       	in	r24, 0x11	; 17
 280:	68 2b       	or	r22, r24
 282:	61 bb       	out	0x11, r22	; 17
 284:	08 95       	ret

00000286 <mdio_setPinValue>:
 286:	81 30       	cpi	r24, 0x01	; 1
 288:	99 f0       	breq	.+38     	; 0x2b0 <mdio_setPinValue+0x2a>
 28a:	28 f0       	brcs	.+10     	; 0x296 <mdio_setPinValue+0x10>
 28c:	82 30       	cpi	r24, 0x02	; 2
 28e:	e9 f0       	breq	.+58     	; 0x2ca <mdio_setPinValue+0x44>
 290:	83 30       	cpi	r24, 0x03	; 3
 292:	41 f1       	breq	.+80     	; 0x2e4 <mdio_setPinValue+0x5e>
 294:	08 95       	ret
 296:	44 23       	and	r20, r20
 298:	19 f0       	breq	.+6      	; 0x2a0 <mdio_setPinValue+0x1a>
 29a:	41 30       	cpi	r20, 0x01	; 1
 29c:	29 f0       	breq	.+10     	; 0x2a8 <mdio_setPinValue+0x22>
 29e:	08 95       	ret
 2a0:	8b b3       	in	r24, 0x1b	; 27
 2a2:	60 95       	com	r22
 2a4:	68 23       	and	r22, r24
 2a6:	02 c0       	rjmp	.+4      	; 0x2ac <mdio_setPinValue+0x26>
 2a8:	8b b3       	in	r24, 0x1b	; 27
 2aa:	68 2b       	or	r22, r24
 2ac:	6b bb       	out	0x1b, r22	; 27
 2ae:	08 95       	ret
 2b0:	44 23       	and	r20, r20
 2b2:	19 f0       	breq	.+6      	; 0x2ba <mdio_setPinValue+0x34>
 2b4:	41 30       	cpi	r20, 0x01	; 1
 2b6:	29 f0       	breq	.+10     	; 0x2c2 <mdio_setPinValue+0x3c>
 2b8:	08 95       	ret
 2ba:	88 b3       	in	r24, 0x18	; 24
 2bc:	60 95       	com	r22
 2be:	68 23       	and	r22, r24
 2c0:	02 c0       	rjmp	.+4      	; 0x2c6 <mdio_setPinValue+0x40>
 2c2:	88 b3       	in	r24, 0x18	; 24
 2c4:	68 2b       	or	r22, r24
 2c6:	68 bb       	out	0x18, r22	; 24
 2c8:	08 95       	ret
 2ca:	44 23       	and	r20, r20
 2cc:	19 f0       	breq	.+6      	; 0x2d4 <mdio_setPinValue+0x4e>
 2ce:	41 30       	cpi	r20, 0x01	; 1
 2d0:	29 f0       	breq	.+10     	; 0x2dc <mdio_setPinValue+0x56>
 2d2:	08 95       	ret
 2d4:	85 b3       	in	r24, 0x15	; 21
 2d6:	60 95       	com	r22
 2d8:	68 23       	and	r22, r24
 2da:	02 c0       	rjmp	.+4      	; 0x2e0 <mdio_setPinValue+0x5a>
 2dc:	85 b3       	in	r24, 0x15	; 21
 2de:	68 2b       	or	r22, r24
 2e0:	65 bb       	out	0x15, r22	; 21
 2e2:	08 95       	ret
 2e4:	44 23       	and	r20, r20
 2e6:	19 f0       	breq	.+6      	; 0x2ee <mdio_setPinValue+0x68>
 2e8:	41 30       	cpi	r20, 0x01	; 1
 2ea:	29 f0       	breq	.+10     	; 0x2f6 <mdio_setPinValue+0x70>
 2ec:	08 95       	ret
 2ee:	82 b3       	in	r24, 0x12	; 18
 2f0:	60 95       	com	r22
 2f2:	68 23       	and	r22, r24
 2f4:	02 c0       	rjmp	.+4      	; 0x2fa <mdio_setPinValue+0x74>
 2f6:	82 b3       	in	r24, 0x12	; 18
 2f8:	68 2b       	or	r22, r24
 2fa:	62 bb       	out	0x12, r22	; 18
 2fc:	08 95       	ret

000002fe <mdio_togglePinValue>:
 2fe:	81 30       	cpi	r24, 0x01	; 1
 300:	51 f0       	breq	.+20     	; 0x316 <mdio_togglePinValue+0x18>
 302:	28 f0       	brcs	.+10     	; 0x30e <mdio_togglePinValue+0x10>
 304:	82 30       	cpi	r24, 0x02	; 2
 306:	59 f0       	breq	.+22     	; 0x31e <mdio_togglePinValue+0x20>
 308:	83 30       	cpi	r24, 0x03	; 3
 30a:	69 f0       	breq	.+26     	; 0x326 <mdio_togglePinValue+0x28>
 30c:	08 95       	ret
 30e:	8b b3       	in	r24, 0x1b	; 27
 310:	68 27       	eor	r22, r24
 312:	6b bb       	out	0x1b, r22	; 27
 314:	08 95       	ret
 316:	88 b3       	in	r24, 0x18	; 24
 318:	68 27       	eor	r22, r24
 31a:	68 bb       	out	0x18, r22	; 24
 31c:	08 95       	ret
 31e:	85 b3       	in	r24, 0x15	; 21
 320:	68 27       	eor	r22, r24
 322:	65 bb       	out	0x15, r22	; 21
 324:	08 95       	ret
 326:	82 b3       	in	r24, 0x12	; 18
 328:	68 27       	eor	r22, r24
 32a:	62 bb       	out	0x12, r22	; 18
 32c:	08 95       	ret

0000032e <mspi_init>:
 32e:	92 2f       	mov	r25, r18
 330:	90 64       	ori	r25, 0x40	; 64
 332:	49 2b       	or	r20, r25
 334:	84 2b       	or	r24, r20
 336:	48 2f       	mov	r20, r24
 338:	46 2b       	or	r20, r22
 33a:	4d b9       	out	0x0d, r20	; 13
 33c:	22 95       	swap	r18
 33e:	26 95       	lsr	r18
 340:	26 95       	lsr	r18
 342:	23 70       	andi	r18, 0x03	; 3
 344:	2e b9       	out	0x0e, r18	; 14
 346:	08 95       	ret

00000348 <mspi_slaveSendRecvByte>:
 348:	8f b9       	out	0x0f, r24	; 15
 34a:	77 9b       	sbis	0x0e, 7	; 14
 34c:	03 c0       	rjmp	.+6      	; 0x354 <mspi_slaveSendRecvByte+0xc>
 34e:	8f b1       	in	r24, 0x0f	; 15
 350:	fb 01       	movw	r30, r22
 352:	80 83       	st	Z, r24
 354:	08 95       	ret

00000356 <muart_init>:
 356:	98 e1       	ldi	r25, 0x18	; 24
 358:	9a b9       	out	0x0a, r25	; 10
 35a:	96 e8       	ldi	r25, 0x86	; 134
 35c:	90 bd       	out	0x20, r25	; 32
 35e:	89 b9       	out	0x09, r24	; 9
 360:	10 bc       	out	0x20, r1	; 32
 362:	08 95       	ret

00000364 <_exit>:
 364:	f8 94       	cli

00000366 <__stop_program>:
 366:	ff cf       	rjmp	.-2      	; 0x366 <__stop_program>
